target datalayout = "e-m:e-p270:32:32-p271:32:32-p272:64:64-i64:64-i128:128-f80:128-n8:16:32:64-S128"
target triple = "x86_64-pc-linux-gnu"

%"struct.open_spiel::GameType" = type <{ %"class.std::__cxx11::basic_string", %"class.std::__cxx11::basic_string", i32, i32, i32, i32, i32, i32, i32, i8, i8, i8, i8, %"class.std::map", i8, i8, [6 x i8] }>
%"class.std::__cxx11::basic_string" = type { %"struct.std::__cxx11::basic_string<char>::_Alloc_hider", i64, %union.anon }
%"struct.std::__cxx11::basic_string<char>::_Alloc_hider" = type { ptr }
%union.anon = type { i64, [8 x i8] }
%"class.std::map" = type { %"class.std::_Rb_tree" }
%"class.std::_Rb_tree" = type { %"struct.std::_Rb_tree<std::__cxx11::basic_string<char>, std::pair<const std::__cxx11::basic_string<char>, open_spiel::GameParameter>, std::_Select1st<std::pair<const std::__cxx11::basic_string<char>, open_spiel::GameParameter>>, std::less<std::__cxx11::basic_string<char>>>::_Rb_tree_impl" }
%"struct.std::_Rb_tree<std::__cxx11::basic_string<char>, std::pair<const std::__cxx11::basic_string<char>, open_spiel::GameParameter>, std::_Select1st<std::pair<const std::__cxx11::basic_string<char>, open_spiel::GameParameter>>, std::less<std::__cxx11::basic_string<char>>>::_Rb_tree_impl" = type { [8 x i8], %"struct.std::_Rb_tree_header" }
%"struct.std::_Rb_tree_header" = type { %"struct.std::_Rb_tree_node_base", i64 }
%"struct.std::_Rb_tree_node_base" = type { i32, ptr, ptr, ptr }
%"class.std::shared_ptr" = type { %"class.std::__shared_ptr" }
%"class.std::__shared_ptr" = type { ptr, %"class.std::__shared_count" }
%"class.std::__shared_count" = type { ptr }
%"class.open_spiel::twenty_forty_eight::TwentyFortyEightState" = type { %"class.open_spiel::State.base", ptr, i32, %"class.std::vector.9", i8, i32, i32, i32 }
%"class.open_spiel::State.base" = type <{ ptr, %"class.std::shared_ptr", i32, i32, %"class.std::vector", i32 }>
%"class.std::vector" = type { %"struct.std::_Vector_base" }
%"struct.std::_Vector_base" = type { %"struct.std::_Vector_base<open_spiel::State::PlayerAction, std::allocator<open_spiel::State::PlayerAction>>::_Vector_impl" }
%"struct.std::_Vector_base<open_spiel::State::PlayerAction, std::allocator<open_spiel::State::PlayerAction>>::_Vector_impl" = type { %"struct.std::_Vector_base<open_spiel::State::PlayerAction, std::allocator<open_spiel::State::PlayerAction>>::_Vector_impl_data" }
%"struct.std::_Vector_base<open_spiel::State::PlayerAction, std::allocator<open_spiel::State::PlayerAction>>::_Vector_impl_data" = type { ptr, ptr, ptr }
%"class.std::vector.9" = type { %"struct.std::_Vector_base.10" }
%"struct.std::_Vector_base.10" = type { %"struct.std::_Vector_base<open_spiel::twenty_forty_eight::Tile, std::allocator<open_spiel::twenty_forty_eight::Tile>>::_Vector_impl" }
%"struct.std::_Vector_base<open_spiel::twenty_forty_eight::Tile, std::allocator<open_spiel::twenty_forty_eight::Tile>>::_Vector_impl" = type { %"struct.std::_Vector_base<open_spiel::twenty_forty_eight::Tile, std::allocator<open_spiel::twenty_forty_eight::Tile>>::_Vector_impl_data" }
%"struct.std::_Vector_base<open_spiel::twenty_forty_eight::Tile, std::allocator<open_spiel::twenty_forty_eight::Tile>>::_Vector_impl_data" = type { ptr, ptr, ptr }
%"class.open_spiel::State" = type <{ ptr, %"class.std::shared_ptr", i32, i32, %"class.std::vector", i32, [4 x i8] }>
%"struct.open_spiel::twenty_forty_eight::Tile" = type <{ i32, i8, [3 x i8] }>
%"class.open_spiel::twenty_forty_eight::TwentyFortyEightGame" = type <{ %"class.open_spiel::Game", i32, [4 x i8] }>
%"class.open_spiel::Game" = type { ptr, %"class.std::enable_shared_from_this", %"struct.open_spiel::GameType", %"class.std::map", %"class.std::map", %"class.absl::debian2::Mutex" }
%"class.std::enable_shared_from_this" = type { %"class.std::weak_ptr" }
%"class.std::weak_ptr" = type { %"class.std::__weak_ptr" }
%"class.std::__weak_ptr" = type { ptr, %"class.std::__weak_count" }
%"class.std::__weak_count" = type { ptr }
%"class.absl::debian2::Mutex" = type { %"struct.std::atomic" }
%"struct.std::atomic" = type { %"struct.std::__atomic_base" }
%"struct.std::__atomic_base" = type { i64 }

; Function Attrs: mustprogress nounwind uwtable
define linkonce_odr noundef nonnull align 4 dereferenceable(5) ptr @_ZNKSt6vectorIN10open_spiel18twenty_forty_eight4TileESaIS2_EEixEm(ptr noundef nonnull align 8 dereferenceable(24) %0, i64 noundef %1) #5 comdat align 2 {
  %3 = alloca ptr, align 8
  %4 = alloca i64, align 8
  store ptr %0, ptr %3, align 8
  store i64 %1, ptr %4, align 8
  %5 = load ptr, ptr %3, align 8
  %6 = getelementptr inbounds nuw %"struct.std::_Vector_base.10", ptr %5, i32 0, i32 0
  %7 = getelementptr inbounds nuw %"struct.std::_Vector_base<open_spiel::twenty_forty_eight::Tile, std::allocator<open_spiel::twenty_forty_eight::Tile>>::_Vector_impl_data", ptr %6, i32 0, i32 0
  %8 = load ptr, ptr %7, align 8
  %9 = load i64, ptr %4, align 8
  %10 = getelementptr inbounds %"struct.open_spiel::twenty_forty_eight::Tile", ptr %8, i64 %9
  ret ptr %10
}

; Function Attrs: mustprogress nounwind uwtable
define linkonce_odr noundef i32 @_ZNK10open_spiel18twenty_forty_eight20TwentyFortyEightGame8max_tileEv(ptr noundef nonnull align 8 dereferenceable(284) %0) #5 comdat align 2 {
  %2 = alloca ptr, align 8
  store ptr %0, ptr %2, align 8
  %3 = load ptr, ptr %2, align 8
  %4 = getelementptr inbounds nuw %"class.open_spiel::twenty_forty_eight::TwentyFortyEightGame", ptr %3, i32 0, i32 1
  %5 = load i32, ptr %4, align 8
  ret i32 %5
}

; Function Attrs: mustprogress nounwind uwtable
define linkonce_odr i64 @_ZNK10open_spiel18twenty_forty_eight21TwentyFortyEightState7BoardAtEii(ptr noundef nonnull align 8 dereferenceable(120) %0, i32 noundef %1, i32 noundef %2) #5 comdat align 2 {
  %4 = alloca %"struct.open_spiel::twenty_forty_eight::Tile", align 4
  %5 = alloca ptr, align 8
  %6 = alloca i32, align 4
  %7 = alloca i32, align 4
  store ptr %0, ptr %5, align 8
  store i32 %1, ptr %6, align 4
  store i32 %2, ptr %7, align 4
  %8 = load ptr, ptr %5, align 8
  %9 = getelementptr inbounds nuw %"class.open_spiel::twenty_forty_eight::TwentyFortyEightState", ptr %8, i32 0, i32 3
  %10 = load i32, ptr %6, align 4
  %11 = mul nsw i32 %10, 4
  %12 = load i32, ptr %7, align 4
  %13 = add nsw i32 %11, %12
  %14 = sext i32 %13 to i64
  %15 = call noundef nonnull align 4 dereferenceable(5) ptr @_ZNKSt6vectorIN10open_spiel18twenty_forty_eight4TileESaIS2_EEixEm(ptr noundef nonnull align 8 dereferenceable(24) %9, i64 noundef %14) #3
  call void @llvm.memcpy.p0.p0.i64(ptr align 4 %4, ptr align 4 %15, i64 8, i1 false)
  %16 = load i64, ptr %4, align 4
  ret i64 %16
}

; Function Attrs: mustprogress uwtable
define noundef zeroext i1 @_ZNK10open_spiel18twenty_forty_eight21TwentyFortyEightState10IsTerminalEv(ptr noundef nonnull align 8 dereferenceable(120) %0) unnamed_addr #4 align 2 {
  %2 = alloca i1, align 1
  %3 = alloca ptr, align 8
  %4 = alloca i32, align 4
  %5 = alloca i32, align 4
  %6 = alloca i32, align 4
  %7 = alloca i32, align 4
  %8 = alloca %"struct.open_spiel::twenty_forty_eight::Tile", align 4
  %9 = alloca %"struct.open_spiel::twenty_forty_eight::Tile", align 4
  store ptr %0, ptr %3, align 8
  %10 = load ptr, ptr %3, align 8
  %11 = getelementptr inbounds nuw %"class.open_spiel::State", ptr %10, i32 0, i32 5
  %12 = load i32, ptr %11, align 8
  %13 = getelementptr inbounds nuw %"class.open_spiel::twenty_forty_eight::TwentyFortyEightState", ptr %10, i32 0, i32 1
  %14 = load ptr, ptr %13, align 8
  %15 = load ptr, ptr %14, align 8
  %16 = getelementptr inbounds ptr, ptr %15, i64 17
  %17 = load ptr, ptr %16, align 8
  %18 = call noundef i32 %17(ptr noundef nonnull align 8 dereferenceable(284) %14)
  %19 = icmp sge i32 %12, %18
  br i1 %19, label %20, label %21

20:                                               ; preds = %1
  store i1 true, ptr %2, align 1
  br label %75

21:                                               ; preds = %1
  store i32 0, ptr %4, align 4
  store i32 0, ptr %5, align 4
  store i32 0, ptr %6, align 4
  br label %22

22:                                               ; preds = %64, %21
  %23 = load i32, ptr %6, align 4
  %24 = icmp slt i32 %23, 4
  br i1 %24, label %25, label %67

25:                                               ; preds = %22
  store i32 0, ptr %7, align 4
  br label %26

26:                                               ; preds = %60, %25
  %27 = load i32, ptr %7, align 4
  %28 = icmp slt i32 %27, 4
  br i1 %28, label %29, label %63

29:                                               ; preds = %26
  %30 = load i32, ptr %6, align 4
  %31 = load i32, ptr %7, align 4
  %32 = call i64 @_ZNK10open_spiel18twenty_forty_eight21TwentyFortyEightState7BoardAtEii(ptr noundef nonnull align 8 dereferenceable(120) %10, i32 noundef %30, i32 noundef %31)
  %33 = trunc i64 %32 to i40
  store i40 %33, ptr %8, align 4
  %34 = getelementptr inbounds nuw %"struct.open_spiel::twenty_forty_eight::Tile", ptr %8, i32 0, i32 0
  %35 = load i32, ptr %34, align 4
  %36 = getelementptr inbounds nuw %"class.open_spiel::twenty_forty_eight::TwentyFortyEightState", ptr %10, i32 0, i32 1
  %37 = load ptr, ptr %36, align 8
  %38 = call noundef i32 @_ZNK10open_spiel18twenty_forty_eight20TwentyFortyEightGame8max_tileEv(ptr noundef nonnull align 8 dereferenceable(284) %37)
  %39 = icmp eq i32 %35, %38
  br i1 %39, label %40, label %41

40:                                               ; preds = %29
  store i1 true, ptr %2, align 1
  br label %75

41:                                               ; preds = %29
  %42 = load i32, ptr %6, align 4
  %43 = load i32, ptr %7, align 4
  %44 = call i64 @_ZNK10open_spiel18twenty_forty_eight21TwentyFortyEightState7BoardAtEii(ptr noundef nonnull align 8 dereferenceable(120) %10, i32 noundef %42, i32 noundef %43)
  %45 = trunc i64 %44 to i40
  store i40 %45, ptr %9, align 4
  %46 = getelementptr inbounds nuw %"struct.open_spiel::twenty_forty_eight::Tile", ptr %9, i32 0, i32 0
  %47 = load i32, ptr %46, align 4
  %48 = icmp eq i32 %47, 0
  br i1 %48, label %49, label %52

49:                                               ; preds = %41
  %50 = load i32, ptr %4, align 4
  %51 = add nsw i32 %50, 1
  store i32 %51, ptr %4, align 4
  br label %52

52:                                               ; preds = %49, %41
  %53 = load i32, ptr %6, align 4
  %54 = load i32, ptr %7, align 4
  %55 = call noundef zeroext i1 @_ZNK10open_spiel18twenty_forty_eight21TwentyFortyEightState18TileMatchAvailableEii(ptr noundef nonnull align 8 dereferenceable(120) %10, i32 noundef %53, i32 noundef %54)
  br i1 %55, label %56, label %59

56:                                               ; preds = %52
  %57 = load i32, ptr %5, align 4
  %58 = add nsw i32 %57, 1
  store i32 %58, ptr %5, align 4
  br label %59

59:                                               ; preds = %56, %52
  br label %60

60:                                               ; preds = %59
  %61 = load i32, ptr %7, align 4
  %62 = add nsw i32 %61, 1
  store i32 %62, ptr %7, align 4
  br label %26, !llvm.loop !18

63:                                               ; preds = %26
  br label %64

64:                                               ; preds = %63
  %65 = load i32, ptr %6, align 4
  %66 = add nsw i32 %65, 1
  store i32 %66, ptr %6, align 4
  br label %22, !llvm.loop !19

67:                                               ; preds = %22
  %68 = load i32, ptr %4, align 4
  %69 = icmp eq i32 %68, 0
  br i1 %69, label %70, label %74

70:                                               ; preds = %67
  %71 = load i32, ptr %5, align 4
  %72 = icmp eq i32 %71, 0
  br i1 %72, label %73, label %74

73:                                               ; preds = %70
  store i1 true, ptr %2, align 1
  br label %75

74:                                               ; preds = %70, %67
  store i1 false, ptr %2, align 1
  br label %75

75:                                               ; preds = %74, %73, %40, %20
  %76 = load i1, ptr %2, align 1
  ret i1 %76
}