; Function Attrs: mustprogress uwtable
define noundef zeroext i1 @_ZNK10open_spiel18twenty_forty_eight21TwentyFortyEightState10IsTerminalEv(ptr noundef nonnull readonly align 8 captures(none) dereferenceable(120) %0) unnamed_addr #3 align 2 {
  %2 = getelementptr inbounds nuw i8, ptr %0, i64 56
  %3 = load i32, ptr %2, align 8
  %4 = getelementptr inbounds nuw i8, ptr %0, i64 64
  %5 = load ptr, ptr %4, align 8
  %6 = load ptr, ptr %5, align 8
  %7 = getelementptr inbounds nuw i8, ptr %6, i64 136
  %8 = load ptr, ptr %7, align 8
  %9 = tail call noundef i32 %8(ptr noundef nonnull align 8 dereferenceable(284) %5)
  %.not = icmp slt i32 %3, %9
  br i1 %.not, label %.preheader25, label %.loopexit

.preheader25:                                     ; preds = %1
  %10 = getelementptr inbounds nuw i8, ptr %0, i64 80
  br label %.preheader

.preheader:                                       ; preds = %.preheader25, %27
  %indvars.iv37 = phi i64 [ 0, %.preheader25 ], [ %indvars.iv.next38, %27 ]
  %.01835 = phi i32 [ 0, %.preheader25 ], [ %spec.select, %27 ]
  %.01934 = phi i32 [ 0, %.preheader25 ], [ %.221, %27 ]
  %.idx = shl nsw i64 %indvars.iv37, 5
  %11 = trunc nuw nsw i64 %indvars.iv37 to i32
  br label %12

12:                                               ; preds = %.preheader, %20
  %indvars.iv = phi i64 [ 0, %.preheader ], [ %indvars.iv.next, %20 ]
  %.132 = phi i32 [ %.01835, %.preheader ], [ %spec.select, %20 ]
  %.12031 = phi i32 [ %.01934, %.preheader ], [ %.221, %20 ]
  %13 = load ptr, ptr %10, align 8
  %14 = getelementptr inbounds nuw %"struct.open_spiel::twenty_forty_eight::Tile", ptr %13, i64 %indvars.iv
  %15 = getelementptr inbounds nuw i8, ptr %14, i64 %.idx
  %.sroa.0.0.copyload.i = load i64, ptr %15, align 4
  %.sroa.02.0.extract.trunc = trunc i64 %.sroa.0.0.copyload.i to i32
  %16 = load ptr, ptr %4, align 8
  %17 = getelementptr inbounds nuw i8, ptr %16, i64 280
  %18 = load i32, ptr %17, align 8
  %19 = icmp eq i32 %18, %.sroa.02.0.extract.trunc
  br i1 %19, label %.loopexit, label %20

20:                                               ; preds = %12
  %21 = and i64 %.sroa.0.0.copyload.i, 4294967295
  %22 = icmp eq i64 %21, 0
  %23 = zext i1 %22 to i32
  %spec.select = add nsw i32 %.132, %23
  %24 = trunc nuw nsw i64 %indvars.iv to i32
  %25 = tail call noundef zeroext i1 @_ZNK10open_spiel18twenty_forty_eight21TwentyFortyEightState18TileMatchAvailableEii(ptr noundef nonnull align 8 dereferenceable(120) %0, i32 noundef %11, i32 noundef %24)
  %26 = zext i1 %25 to i32
  %.221 = add nsw i32 %.12031, %26
  %indvars.iv.next = add nuw nsw i64 %indvars.iv, 1
  %exitcond.not = icmp eq i64 %indvars.iv.next, 4
  br i1 %exitcond.not, label %27, label %12, !llvm.loop !36

27:                                               ; preds = %20
  %indvars.iv.next38 = add nuw nsw i64 %indvars.iv37, 1
  %exitcond40.not = icmp eq i64 %indvars.iv.next38, 4
  br i1 %exitcond40.not, label %28, label %.preheader, !llvm.loop !37

28:                                               ; preds = %27
  %29 = icmp eq i32 %spec.select, 0
  %30 = icmp eq i32 %.221, 0
  %or.cond = select i1 %29, i1 %30, i1 false
  br label %.loopexit

.loopexit:                                        ; preds = %12, %28, %1
  %.0 = phi i1 [ true, %1 ], [ %or.cond, %28 ], [ true, %12 ]
  ret i1 %.0
}